target datalayout = "e-m:e-p270:32:32-p271:32:32-p272:64:64-i64:64-i128:128-f80:128-n8:16:32:64-S128"
target triple = "x86_64-pc-linux-gnu"

%struct.tinfl_decompressor_tag = type { i32, i32, i32, i32, i32, i32, i32, i32, i32, i32, i32, [3 x i32], i64, i64, [3 x [1024 x i16]], [576 x i16], [64 x i16], [38 x i16], [288 x i8], [32 x i8], [19 x i8], [4 x i8], [457 x i8] }

; Function Attrs: nounwind uwtable
define ptr @tinfl_decompressor_alloc() #0 {
  %1 = alloca ptr, align 8
  call void @llvm.lifetime.start.p0(i64 8, ptr %1) #13
  %2 = call noalias ptr @malloc(i64 noundef 8376) #14
  store ptr %2, ptr %1, align 8
  %3 = load ptr, ptr %1, align 8
  %4 = icmp ne ptr %3, null
  br i1 %4, label %5, label %11

5:                                                ; preds = %0
  br label %6

6:                                                ; preds = %5
  %7 = load ptr, ptr %1, align 8
  %8 = getelementptr inbounds nuw %struct.tinfl_decompressor_tag, ptr %7, i32 0, i32 0
  store i32 0, ptr %8, align 8
  br label %9

9:                                                ; preds = %6
  br label %10

10:                                               ; preds = %9
  br label %11

11:                                               ; preds = %10, %0
  %12 = load ptr, ptr %1, align 8
  call void @llvm.lifetime.end.p0(i64 8, ptr %1) #13
  ret ptr %12
}