; Function Attrs: mustprogress nofree nounwind willreturn memory(write, argmem: none, inaccessiblemem: readwrite) uwtable
define noalias noundef ptr @tinfl_decompressor_alloc() local_unnamed_addr #17 {
  %1 = tail call noalias dereferenceable_or_null(8376) ptr @malloc(i64 noundef 8376) #35
  %.not = icmp eq ptr %1, null
  br i1 %.not, label %3, label %2

2:                                                ; preds = %0
  store i32 0, ptr %1, align 8
  br label %3

3:                                                ; preds = %2, %0
  ret ptr %1
}